target datalayout = "e-m:e-p270:32:32-p271:32:32-p272:64:64-i64:64-i128:128-f80:128-n8:16:32:64-S128"
target triple = "x86_64-pc-linux-gnu"

%struct.nstime_t = type { i64, i32 }
%struct._GString = type { ptr, i64, i64 }
%struct.rlc_segment = type { ptr, i32, i64, i32, i8, i32, i16, i32, i16, [512 x i32], i16, i8, i16, i16, i16, i8, i8, i16 }
%struct.rlc_3gpp_tap_info = type { i8, i8, i8, i8, i16, i16, i16, i16, i8, %struct.nstime_t, i8, i8, i32, i8, i8, i32, i16, [512 x i32], i16 }
%struct.rlc_graph = type { ptr, ptr, i8, i8, i16, i16, i16, i8, i8 }

@.str = private unnamed_addr constant [18 x i8] c"rlc-lte or rlc-nr\00", align 1
@.str.1 = private unnamed_addr constant [9 x i8] c"rlc-3gpp\00", align 1
@stderr = external global ptr, align 8
@.str.5 = private unnamed_addr constant [48 x i8] c"wireshark: Couldn't register rlc_graph tap: %s\0A\00", align 1
@.str.6 = private unnamed_addr constant [17 x i8] c"No packets found\00", align 1

; Function Attrs: null_pointer_is_valid sspstrong uwtable
define hidden zeroext i1 @rlc_graph_segment_list_get(ptr noundef %0, ptr noundef %1, i1 noundef zeroext %2, ptr noundef %3) #1 {
  %5 = alloca i1, align 1
  %6 = alloca ptr, align 8
  %7 = alloca ptr, align 8
  %8 = alloca i8, align 1
  %9 = alloca ptr, align 8
  %10 = alloca %struct.rlc_segment, align 8
  %11 = alloca ptr, align 8
  %12 = alloca i32, align 4
  %13 = alloca ptr, align 8
  store ptr %0, ptr %6, align 8
  store ptr %1, ptr %7, align 8
  %14 = zext i1 %2 to i8
  store i8 %14, ptr %8, align 1
  store ptr %3, ptr %9, align 8
  call void @llvm.lifetime.start.p0(i64 2112, ptr %10) #10
  call void @llvm.lifetime.start.p0(i64 8, ptr %11) #10
  %15 = load ptr, ptr %6, align 8
  %16 = icmp ne ptr %15, null
  br i1 %16, label %17, label %20

17:                                               ; preds = %4
  %18 = load ptr, ptr %7, align 8
  %19 = icmp ne ptr %18, null
  br i1 %19, label %21, label %20

20:                                               ; preds = %17, %4
  store i1 false, ptr %5, align 1
  store i32 1, ptr %12, align 4
  br label %94

21:                                               ; preds = %17
  %22 = load i8, ptr %8, align 1, !range !6, !noundef !7
  %23 = trunc i8 %22 to i1
  br i1 %23, label %67, label %24

24:                                               ; preds = %21
  call void @llvm.lifetime.start.p0(i64 8, ptr %13) #10
  %25 = load ptr, ptr %6, align 8
  %26 = load ptr, ptr %9, align 8
  %27 = call ptr @select_rlc_lte_session(ptr noundef %25, ptr noundef %10, ptr noundef %26)
  store ptr %27, ptr %13, align 8
  %28 = load ptr, ptr %13, align 8
  %29 = icmp ne ptr %28, null
  br i1 %29, label %31, label %30

30:                                               ; preds = %24
  store i1 false, ptr %5, align 1
  store i32 1, ptr %12, align 4
  br label %64

31:                                               ; preds = %24
  %32 = load ptr, ptr %7, align 8
  %33 = getelementptr inbounds nuw %struct.rlc_graph, ptr %32, i32 0, i32 2
  store i8 1, ptr %33, align 8
  %34 = load ptr, ptr %13, align 8
  %35 = getelementptr inbounds nuw %struct.rlc_3gpp_tap_info, ptr %34, i32 0, i32 0
  %36 = load i8, ptr %35, align 8
  %37 = load ptr, ptr %7, align 8
  %38 = getelementptr inbounds nuw %struct.rlc_graph, ptr %37, i32 0, i32 3
  store i8 %36, ptr %38, align 1
  %39 = load ptr, ptr %13, align 8
  %40 = getelementptr inbounds nuw %struct.rlc_3gpp_tap_info, ptr %39, i32 0, i32 4
  %41 = load i16, ptr %40, align 4
  %42 = load ptr, ptr %7, align 8
  %43 = getelementptr inbounds nuw %struct.rlc_graph, ptr %42, i32 0, i32 4
  store i16 %41, ptr %43, align 2
  %44 = load ptr, ptr %13, align 8
  %45 = getelementptr inbounds nuw %struct.rlc_3gpp_tap_info, ptr %44, i32 0, i32 5
  %46 = load i16, ptr %45, align 2
  %47 = load ptr, ptr %7, align 8
  %48 = getelementptr inbounds nuw %struct.rlc_graph, ptr %47, i32 0, i32 5
  store i16 %46, ptr %48, align 4
  %49 = load ptr, ptr %13, align 8
  %50 = getelementptr inbounds nuw %struct.rlc_3gpp_tap_info, ptr %49, i32 0, i32 6
  %51 = load i16, ptr %50, align 8
  %52 = load ptr, ptr %7, align 8
  %53 = getelementptr inbounds nuw %struct.rlc_graph, ptr %52, i32 0, i32 6
  store i16 %51, ptr %53, align 2
  %54 = load ptr, ptr %13, align 8
  %55 = getelementptr inbounds nuw %struct.rlc_3gpp_tap_info, ptr %54, i32 0, i32 1
  %56 = load i8, ptr %55, align 1
  %57 = load ptr, ptr %7, align 8
  %58 = getelementptr inbounds nuw %struct.rlc_graph, ptr %57, i32 0, i32 7
  store i8 %56, ptr %58, align 8
  %59 = load ptr, ptr %13, align 8
  %60 = getelementptr inbounds nuw %struct.rlc_3gpp_tap_info, ptr %59, i32 0, i32 2
  %61 = load i8, ptr %60, align 2
  %62 = load ptr, ptr %7, align 8
  %63 = getelementptr inbounds nuw %struct.rlc_graph, ptr %62, i32 0, i32 8
  store i8 %61, ptr %63, align 1
  store i32 0, ptr %12, align 4
  br label %64

64:                                               ; preds = %31, %30
  call void @llvm.lifetime.end.p0(i64 8, ptr %13) #10
  %65 = load i32, ptr %12, align 4
  switch i32 %65, label %94 [
    i32 0, label %66
  ]

66:                                               ; preds = %64
  br label %67

67:                                               ; preds = %66, %21
  %68 = load ptr, ptr %7, align 8
  %69 = getelementptr inbounds nuw %struct.rlc_graph, ptr %68, i32 0, i32 1
  store ptr null, ptr %69, align 8
  %70 = load ptr, ptr %7, align 8
  %71 = call ptr @register_tap_listener(ptr noundef @.str.1, ptr noundef %70, ptr noundef @.str, i32 noundef 0, ptr noundef null, ptr noundef @rlc_lte_tap_for_graph_data, ptr noundef null, ptr noundef null)
  store ptr %71, ptr %11, align 8
  %72 = load ptr, ptr %11, align 8
  %73 = icmp ne ptr %72, null
  br i1 %73, label %74, label %82

74:                                               ; preds = %67
  %75 = load ptr, ptr @stderr, align 8
  %76 = load ptr, ptr %11, align 8
  %77 = getelementptr inbounds nuw %struct._GString, ptr %76, i32 0, i32 0
  %78 = load ptr, ptr %77, align 8
  %79 = call i32 (ptr, i32, ptr, ...) @__fprintf_chk(ptr noundef %75, i32 noundef 2, ptr noundef @.str.5, ptr noundef %78)
  %80 = load ptr, ptr %11, align 8
  %81 = call ptr @g_string_free(ptr noundef %80, i32 noundef 1)
  call void @exit(i32 noundef 1) #11
  unreachable

82:                                               ; preds = %67
  %83 = load ptr, ptr %6, align 8
  %84 = call i32 @cf_retap_packets(ptr noundef %83)
  %85 = load ptr, ptr %7, align 8
  call void @remove_tap_listener(ptr noundef %85)
  %86 = load ptr, ptr %7, align 8
  %87 = getelementptr inbounds nuw %struct.rlc_graph, ptr %86, i32 0, i32 1
  %88 = load ptr, ptr %87, align 8
  %89 = icmp eq ptr %88, null
  br i1 %89, label %90, label %93

90:                                               ; preds = %82
  %91 = call noalias ptr @g_strdup(ptr noundef @.str.6)
  %92 = load ptr, ptr %9, align 8
  store ptr %91, ptr %92, align 8
  store i1 false, ptr %5, align 1
  store i32 1, ptr %12, align 4
  br label %94

93:                                               ; preds = %82
  store i1 true, ptr %5, align 1
  store i32 1, ptr %12, align 4
  br label %94

94:                                               ; preds = %93, %90, %64, %20
  call void @llvm.lifetime.end.p0(i64 8, ptr %11) #10
  call void @llvm.lifetime.end.p0(i64 2112, ptr %10) #10
  %95 = load i1, ptr %5, align 1
  ret i1 %95
}