; Function Attrs: null_pointer_is_valid sspstrong uwtable
define hidden noundef zeroext i1 @rlc_graph_segment_list_get(ptr noundef %0, ptr noundef %1, i1 noundef zeroext %2, ptr noundef writeonly captures(none) %3) local_unnamed_addr #1 {
  %5 = alloca %struct.rlc_segment, align 8
  call void @llvm.lifetime.start.p0(i64 2112, ptr nonnull %5) #9
  %6 = icmp ne ptr %0, null
  %7 = icmp ne ptr %1, null
  %or.cond = and i1 %6, %7
  br i1 %or.cond, label %8, label %.critedge

8:                                                ; preds = %4
  br i1 %2, label %30, label %9

9:                                                ; preds = %8
  %10 = call ptr @select_rlc_lte_session(ptr noundef nonnull %0, ptr noundef nonnull %5, ptr noundef %3)
  %.not.not = icmp eq ptr %10, null
  br i1 %.not.not, label %.critedge, label %11

11:                                               ; preds = %9
  %12 = getelementptr inbounds nuw i8, ptr %1, i64 16
  store i8 1, ptr %12, align 8
  %13 = load i8, ptr %10, align 8
  %14 = getelementptr inbounds nuw i8, ptr %1, i64 17
  store i8 %13, ptr %14, align 1
  %15 = getelementptr inbounds nuw i8, ptr %10, i64 4
  %16 = load i16, ptr %15, align 4
  %17 = getelementptr inbounds nuw i8, ptr %1, i64 18
  store i16 %16, ptr %17, align 2
  %18 = getelementptr inbounds nuw i8, ptr %10, i64 6
  %19 = load i16, ptr %18, align 2
  %20 = getelementptr inbounds nuw i8, ptr %1, i64 20
  store i16 %19, ptr %20, align 4
  %21 = getelementptr inbounds nuw i8, ptr %10, i64 8
  %22 = load i16, ptr %21, align 8
  %23 = getelementptr inbounds nuw i8, ptr %1, i64 22
  store i16 %22, ptr %23, align 2
  %24 = getelementptr inbounds nuw i8, ptr %10, i64 1
  %25 = load i8, ptr %24, align 1
  %26 = getelementptr inbounds nuw i8, ptr %1, i64 24
  store i8 %25, ptr %26, align 8
  %27 = getelementptr inbounds nuw i8, ptr %10, i64 2
  %28 = load i8, ptr %27, align 2
  %29 = getelementptr inbounds nuw i8, ptr %1, i64 25
  store i8 %28, ptr %29, align 1
  br label %30

30:                                               ; preds = %11, %8
  %31 = getelementptr inbounds nuw i8, ptr %1, i64 8
  store ptr null, ptr %31, align 8
  %32 = tail call ptr @register_tap_listener(ptr noundef nonnull @.str.1, ptr noundef nonnull %1, ptr noundef nonnull @.str, i32 noundef 0, ptr noundef null, ptr noundef nonnull @rlc_lte_tap_for_graph_data, ptr noundef null, ptr noundef null)
  %.not = icmp eq ptr %32, null
  br i1 %.not, label %38, label %33

33:                                               ; preds = %30
  %34 = load ptr, ptr @stderr, align 8
  %35 = load ptr, ptr %32, align 8
  %36 = tail call i32 (ptr, i32, ptr, ...) @__fprintf_chk(ptr noundef %34, i32 noundef 2, ptr noundef nonnull @.str.5, ptr noundef %35)
  %37 = tail call ptr @g_string_free(ptr noundef nonnull %32, i32 noundef 1)
  tail call void @exit(i32 noundef 1) #10
  unreachable

38:                                               ; preds = %30
  %39 = tail call i32 @cf_retap_packets(ptr noundef nonnull %0)
  tail call void @remove_tap_listener(ptr noundef nonnull %1)
  %40 = load ptr, ptr %31, align 8
  %41 = icmp eq ptr %40, null
  br i1 %41, label %42, label %.critedge

42:                                               ; preds = %38
  %43 = tail call noalias ptr @g_strdup(ptr noundef nonnull @.str.6)
  store ptr %43, ptr %3, align 8
  br label %.critedge

.critedge:                                        ; preds = %9, %38, %4, %42
  %.0 = phi i1 [ false, %42 ], [ false, %4 ], [ true, %38 ], [ false, %9 ]
  call void @llvm.lifetime.end.p0(i64 2112, ptr nonnull %5) #9
  ret i1 %.0
}